target datalayout = "e-m:e-p270:32:32-p271:32:32-p272:64:64-i64:64-i128:128-f80:128-n8:16:32:64-S128"
target triple = "x86_64-pc-linux-gnu"

%struct.MvcCubeStruct = type { ptr, i32, i32, [1 x i32] }
%struct.MvcCoverStruct = type { i32, i32, i32, %struct.MvcListStruct, ptr, i32, ptr, ptr, ptr }
%struct.MvcListStruct = type { ptr, ptr, i32 }

; Function Attrs: nounwind uwtable
define void @Mvc_CoverSupport(ptr noundef %0, ptr noundef %1) #0 {
  %3 = alloca ptr, align 8
  %4 = alloca ptr, align 8
  %5 = alloca ptr, align 8
  %6 = alloca i32, align 4
  %7 = alloca i32, align 4
  store ptr %0, ptr %3, align 8, !tbaa !3
  store ptr %1, ptr %4, align 8, !tbaa !8
  call void @llvm.lifetime.start.p0(i64 8, ptr %5) #3
  %8 = load ptr, ptr %4, align 8, !tbaa !8
  %9 = getelementptr inbounds nuw %struct.MvcCubeStruct, ptr %8, i32 0, i32 1
  %10 = load i32, ptr %9, align 8
  %11 = and i32 %10, 16777215
  %12 = icmp eq i32 %11, 0
  br i1 %12, label %13, label %17

13:                                               ; preds = %2
  %14 = load ptr, ptr %4, align 8, !tbaa !8
  %15 = getelementptr inbounds nuw %struct.MvcCubeStruct, ptr %14, i32 0, i32 3
  %16 = getelementptr inbounds [1 x i32], ptr %15, i64 0, i64 0
  store i32 0, ptr %16, align 8, !tbaa !10
  br label %49

17:                                               ; preds = %2
  %18 = load ptr, ptr %4, align 8, !tbaa !8
  %19 = getelementptr inbounds nuw %struct.MvcCubeStruct, ptr %18, i32 0, i32 1
  %20 = load i32, ptr %19, align 8
  %21 = and i32 %20, 16777215
  %22 = icmp eq i32 %21, 1
  br i1 %22, label %23, label %30

23:                                               ; preds = %17
  %24 = load ptr, ptr %4, align 8, !tbaa !8
  %25 = getelementptr inbounds nuw %struct.MvcCubeStruct, ptr %24, i32 0, i32 3
  %26 = getelementptr inbounds [1 x i32], ptr %25, i64 0, i64 0
  store i32 0, ptr %26, align 8, !tbaa !10
  %27 = load ptr, ptr %4, align 8, !tbaa !8
  %28 = getelementptr inbounds nuw %struct.MvcCubeStruct, ptr %27, i32 0, i32 3
  %29 = getelementptr inbounds [1 x i32], ptr %28, i64 0, i64 1
  store i32 0, ptr %29, align 4, !tbaa !10
  br label %48

30:                                               ; preds = %17
  call void @llvm.lifetime.start.p0(i64 4, ptr %6) #3
  %31 = load ptr, ptr %4, align 8, !tbaa !8
  %32 = getelementptr inbounds nuw %struct.MvcCubeStruct, ptr %31, i32 0, i32 1
  %33 = load i32, ptr %32, align 8
  %34 = and i32 %33, 16777215
  store i32 %34, ptr %6, align 4, !tbaa !10
  br label %35

35:                                               ; preds = %44, %30
  %36 = load i32, ptr %6, align 4, !tbaa !10
  %37 = icmp sge i32 %36, 0
  br i1 %37, label %38, label %47

38:                                               ; preds = %35
  %39 = load ptr, ptr %4, align 8, !tbaa !8
  %40 = getelementptr inbounds nuw %struct.MvcCubeStruct, ptr %39, i32 0, i32 3
  %41 = load i32, ptr %6, align 4, !tbaa !10
  %42 = sext i32 %41 to i64
  %43 = getelementptr inbounds [1 x i32], ptr %40, i64 0, i64 %42
  store i32 0, ptr %43, align 4, !tbaa !10
  br label %44

44:                                               ; preds = %38
  %45 = load i32, ptr %6, align 4, !tbaa !10
  %46 = add nsw i32 %45, -1
  store i32 %46, ptr %6, align 4, !tbaa !10
  br label %35, !llvm.loop !12

47:                                               ; preds = %35
  call void @llvm.lifetime.end.p0(i64 4, ptr %6) #3
  br label %48

48:                                               ; preds = %47, %23
  br label %49

49:                                               ; preds = %48, %13
  %50 = load ptr, ptr %3, align 8, !tbaa !3
  %51 = getelementptr inbounds nuw %struct.MvcCoverStruct, ptr %50, i32 0, i32 3
  %52 = getelementptr inbounds nuw %struct.MvcListStruct, ptr %51, i32 0, i32 0
  %53 = load ptr, ptr %52, align 8, !tbaa !14
  store ptr %53, ptr %5, align 8, !tbaa !8
  br label %54

54:                                               ; preds = %140, %49
  %55 = load ptr, ptr %5, align 8, !tbaa !8
  %56 = icmp ne ptr %55, null
  br i1 %56, label %57, label %144

57:                                               ; preds = %54
  %58 = load ptr, ptr %4, align 8, !tbaa !8
  %59 = getelementptr inbounds nuw %struct.MvcCubeStruct, ptr %58, i32 0, i32 1
  %60 = load i32, ptr %59, align 8
  %61 = and i32 %60, 16777215
  %62 = icmp eq i32 %61, 0
  br i1 %62, label %63, label %76

63:                                               ; preds = %57
  %64 = load ptr, ptr %4, align 8, !tbaa !8
  %65 = getelementptr inbounds nuw %struct.MvcCubeStruct, ptr %64, i32 0, i32 3
  %66 = getelementptr inbounds [1 x i32], ptr %65, i64 0, i64 0
  %67 = load i32, ptr %66, align 8, !tbaa !10
  %68 = load ptr, ptr %5, align 8, !tbaa !8
  %69 = getelementptr inbounds nuw %struct.MvcCubeStruct, ptr %68, i32 0, i32 3
  %70 = getelementptr inbounds [1 x i32], ptr %69, i64 0, i64 0
  %71 = load i32, ptr %70, align 8, !tbaa !10
  %72 = or i32 %67, %71
  %73 = load ptr, ptr %4, align 8, !tbaa !8
  %74 = getelementptr inbounds nuw %struct.MvcCubeStruct, ptr %73, i32 0, i32 3
  %75 = getelementptr inbounds [1 x i32], ptr %74, i64 0, i64 0
  store i32 %72, ptr %75, align 8, !tbaa !10
  br label %139

76:                                               ; preds = %57
  %77 = load ptr, ptr %4, align 8, !tbaa !8
  %78 = getelementptr inbounds nuw %struct.MvcCubeStruct, ptr %77, i32 0, i32 1
  %79 = load i32, ptr %78, align 8
  %80 = and i32 %79, 16777215
  %81 = icmp eq i32 %80, 1
  br i1 %81, label %82, label %107

82:                                               ; preds = %76
  %83 = load ptr, ptr %4, align 8, !tbaa !8
  %84 = getelementptr inbounds nuw %struct.MvcCubeStruct, ptr %83, i32 0, i32 3
  %85 = getelementptr inbounds [1 x i32], ptr %84, i64 0, i64 0
  %86 = load i32, ptr %85, align 8, !tbaa !10
  %87 = load ptr, ptr %5, align 8, !tbaa !8
  %88 = getelementptr inbounds nuw %struct.MvcCubeStruct, ptr %87, i32 0, i32 3
  %89 = getelementptr inbounds [1 x i32], ptr %88, i64 0, i64 0
  %90 = load i32, ptr %89, align 8, !tbaa !10
  %91 = or i32 %86, %90
  %92 = load ptr, ptr %4, align 8, !tbaa !8
  %93 = getelementptr inbounds nuw %struct.MvcCubeStruct, ptr %92, i32 0, i32 3
  %94 = getelementptr inbounds [1 x i32], ptr %93, i64 0, i64 0
  store i32 %91, ptr %94, align 8, !tbaa !10
  %95 = load ptr, ptr %4, align 8, !tbaa !8
  %96 = getelementptr inbounds nuw %struct.MvcCubeStruct, ptr %95, i32 0, i32 3
  %97 = getelementptr inbounds [1 x i32], ptr %96, i64 0, i64 1
  %98 = load i32, ptr %97, align 4, !tbaa !10
  %99 = load ptr, ptr %5, align 8, !tbaa !8
  %100 = getelementptr inbounds nuw %struct.MvcCubeStruct, ptr %99, i32 0, i32 3
  %101 = getelementptr inbounds [1 x i32], ptr %100, i64 0, i64 1
  %102 = load i32, ptr %101, align 4, !tbaa !10
  %103 = or i32 %98, %102
  %104 = load ptr, ptr %4, align 8, !tbaa !8
  %105 = getelementptr inbounds nuw %struct.MvcCubeStruct, ptr %104, i32 0, i32 3
  %106 = getelementptr inbounds [1 x i32], ptr %105, i64 0, i64 1
  store i32 %103, ptr %106, align 4, !tbaa !10
  br label %138

107:                                              ; preds = %76
  call void @llvm.lifetime.start.p0(i64 4, ptr %7) #3
  %108 = load ptr, ptr %4, align 8, !tbaa !8
  %109 = getelementptr inbounds nuw %struct.MvcCubeStruct, ptr %108, i32 0, i32 1
  %110 = load i32, ptr %109, align 8
  %111 = and i32 %110, 16777215
  store i32 %111, ptr %7, align 4, !tbaa !10
  br label %112

112:                                              ; preds = %134, %107
  %113 = load i32, ptr %7, align 4, !tbaa !10
  %114 = icmp sge i32 %113, 0
  br i1 %114, label %115, label %137

115:                                              ; preds = %112
  %116 = load ptr, ptr %4, align 8, !tbaa !8
  %117 = getelementptr inbounds nuw %struct.MvcCubeStruct, ptr %116, i32 0, i32 3
  %118 = load i32, ptr %7, align 4, !tbaa !10
  %119 = sext i32 %118 to i64
  %120 = getelementptr inbounds [1 x i32], ptr %117, i64 0, i64 %119
  %121 = load i32, ptr %120, align 4, !tbaa !10
  %122 = load ptr, ptr %5, align 8, !tbaa !8
  %123 = getelementptr inbounds nuw %struct.MvcCubeStruct, ptr %122, i32 0, i32 3
  %124 = load i32, ptr %7, align 4, !tbaa !10
  %125 = sext i32 %124 to i64
  %126 = getelementptr inbounds [1 x i32], ptr %123, i64 0, i64 %125
  %127 = load i32, ptr %126, align 4, !tbaa !10
  %128 = or i32 %121, %127
  %129 = load ptr, ptr %4, align 8, !tbaa !8
  %130 = getelementptr inbounds nuw %struct.MvcCubeStruct, ptr %129, i32 0, i32 3
  %131 = load i32, ptr %7, align 4, !tbaa !10
  %132 = sext i32 %131 to i64
  %133 = getelementptr inbounds [1 x i32], ptr %130, i64 0, i64 %132
  store i32 %128, ptr %133, align 4, !tbaa !10
  br label %134

134:                                              ; preds = %115
  %135 = load i32, ptr %7, align 4, !tbaa !10
  %136 = add nsw i32 %135, -1
  store i32 %136, ptr %7, align 4, !tbaa !10
  br label %112, !llvm.loop !20

137:                                              ; preds = %112
  call void @llvm.lifetime.end.p0(i64 4, ptr %7) #3
  br label %138

138:                                              ; preds = %137, %82
  br label %139

139:                                              ; preds = %138, %63
  br label %140

140:                                              ; preds = %139
  %141 = load ptr, ptr %5, align 8, !tbaa !8
  %142 = getelementptr inbounds nuw %struct.MvcCubeStruct, ptr %141, i32 0, i32 0
  %143 = load ptr, ptr %142, align 8, !tbaa !21
  store ptr %143, ptr %5, align 8, !tbaa !8
  br label %54, !llvm.loop !23

144:                                              ; preds = %54
  call void @llvm.lifetime.end.p0(i64 8, ptr %5) #3
  ret void
}