; Function Attrs: nofree norecurse nosync nounwind memory(read, argmem: readwrite, inaccessiblemem: none) uwtable
define void @Mvc_CoverSupport(ptr noundef readonly captures(none) %0, ptr noundef captures(none) %1) local_unnamed_addr #0 {
  %3 = getelementptr inbounds nuw i8, ptr %1, i64 8
  %4 = load i32, ptr %3, align 8
  %5 = and i32 %4, 16777215
  %6 = getelementptr inbounds nuw i8, ptr %1, i64 16
  switch i32 %5, label %.preheader36 [
    i32 0, label %10
    i32 1, label %11
  ]

.preheader36:                                     ; preds = %2
  %7 = shl i32 %4, 2
  %8 = and i32 %7, 67108860
  %narrow = add nuw nsw i32 %8, 4
  %9 = zext nneg i32 %narrow to i64
  tail call void @llvm.memset.p0.i64(ptr noundef nonnull align 4 dereferenceable(1) %6, i8 0, i64 %9, i1 false), !tbaa !3
  br label %.loopexit37

10:                                               ; preds = %2
  store i32 0, ptr %6, align 8, !tbaa !3
  br label %.loopexit37

11:                                               ; preds = %2
  store i32 0, ptr %6, align 8, !tbaa !3
  %12 = getelementptr inbounds nuw i8, ptr %1, i64 20
  store i32 0, ptr %12, align 4, !tbaa !3
  br label %.loopexit37

.loopexit37:                                      ; preds = %.preheader36, %11, %10
  %13 = getelementptr inbounds nuw i8, ptr %0, i64 16
  %.03340 = load ptr, ptr %13, align 8, !tbaa !7
  %.not41 = icmp eq ptr %.03340, null
  br i1 %.not41, label %._crit_edge, label %.lr.ph

.lr.ph:                                           ; preds = %.loopexit37
  %14 = getelementptr inbounds nuw i8, ptr %1, i64 16
  %15 = getelementptr inbounds nuw i8, ptr %1, i64 20
  switch i32 %5, label %.preheader.preheader [
    i32 0, label %.lr.ph.split.us
    i32 1, label %.lr.ph.split.us43
  ]

.preheader.preheader:                             ; preds = %.lr.ph
  %16 = and i32 %4, 16777215
  %17 = zext nneg i32 %16 to i64
  br label %.preheader

.lr.ph.split.us:                                  ; preds = %.lr.ph
  %.promoted = load i32, ptr %14, align 8, !tbaa !3
  br label %18

18:                                               ; preds = %18, %.lr.ph.split.us
  %19 = phi i32 [ %.promoted, %.lr.ph.split.us ], [ %22, %18 ]
  %.03342.us = phi ptr [ %.03340, %.lr.ph.split.us ], [ %.033.us, %18 ]
  %20 = getelementptr inbounds nuw i8, ptr %.03342.us, i64 16
  %21 = load i32, ptr %20, align 8, !tbaa !3
  %22 = or i32 %21, %19
  store i32 %22, ptr %14, align 8, !tbaa !3
  %.033.us = load ptr, ptr %.03342.us, align 8, !tbaa !7
  %.not.us = icmp eq ptr %.033.us, null
  br i1 %.not.us, label %._crit_edge, label %18, !llvm.loop !10

.lr.ph.split.us43:                                ; preds = %.lr.ph
  %.promoted47 = load i32, ptr %14, align 8, !tbaa !3
  %.promoted48 = load i32, ptr %15, align 4, !tbaa !3
  br label %23

23:                                               ; preds = %23, %.lr.ph.split.us43
  %24 = phi i32 [ %.promoted48, %.lr.ph.split.us43 ], [ %31, %23 ]
  %25 = phi i32 [ %.promoted47, %.lr.ph.split.us43 ], [ %28, %23 ]
  %.03342.us44 = phi ptr [ %.03340, %.lr.ph.split.us43 ], [ %.033.us45, %23 ]
  %26 = getelementptr inbounds nuw i8, ptr %.03342.us44, i64 16
  %27 = load i32, ptr %26, align 8, !tbaa !3
  %28 = or i32 %27, %25
  store i32 %28, ptr %14, align 8, !tbaa !3
  %29 = getelementptr inbounds nuw i8, ptr %.03342.us44, i64 20
  %30 = load i32, ptr %29, align 4, !tbaa !3
  %31 = or i32 %30, %24
  store i32 %31, ptr %15, align 4, !tbaa !3
  %.033.us45 = load ptr, ptr %.03342.us44, align 8, !tbaa !7
  %.not.us46 = icmp eq ptr %.033.us45, null
  br i1 %.not.us46, label %._crit_edge, label %23, !llvm.loop !10

.preheader:                                       ; preds = %.preheader.preheader, %.loopexit
  %.03342 = phi ptr [ %.033, %.loopexit ], [ %.03340, %.preheader.preheader ]
  %32 = getelementptr inbounds nuw i8, ptr %.03342, i64 16
  br label %33

33:                                               ; preds = %.preheader, %33
  %indvars.iv = phi i64 [ %17, %.preheader ], [ %indvars.iv.next, %33 ]
  %34 = getelementptr inbounds nuw [1 x i32], ptr %14, i64 0, i64 %indvars.iv
  %35 = load i32, ptr %34, align 4, !tbaa !3
  %36 = getelementptr inbounds nuw [1 x i32], ptr %32, i64 0, i64 %indvars.iv
  %37 = load i32, ptr %36, align 4, !tbaa !3
  %38 = or i32 %37, %35
  store i32 %38, ptr %34, align 4, !tbaa !3
  %indvars.iv.next = add nsw i64 %indvars.iv, -1
  %39 = icmp sgt i64 %indvars.iv, 0
  br i1 %39, label %33, label %.loopexit, !llvm.loop !12

.loopexit:                                        ; preds = %33
  %.033 = load ptr, ptr %.03342, align 8, !tbaa !7
  %.not = icmp eq ptr %.033, null
  br i1 %.not, label %._crit_edge, label %.preheader, !llvm.loop !10

._crit_edge:                                      ; preds = %23, %18, %.loopexit, %.loopexit37
  ret void
}